target datalayout = "e-m:e-p270:32:32-p271:32:32-p272:64:64-i64:64-i128:128-f80:128-n8:16:32:64-S128"
target triple = "x86_64-pc-linux-gnu"

%"class.OpenImageIO::v3_1_0::SHA1" = type <{ ptr, i8, [7 x i8] }>

@_ZN11OpenImageIO6v3_1_05CSHA1C1Ev = hidden unnamed_addr alias void (ptr), ptr @_ZN11OpenImageIO6v3_1_05CSHA1C2Ev

; Function Attrs: mustprogress uwtable
define void @_ZN11OpenImageIO6v3_1_04SHA1C2EPKvm(ptr noundef nonnull align 8 dereferenceable(9) %0, ptr noundef %1, i64 noundef %2) unnamed_addr #5 align 2 personality ptr @__gxx_personality_v0 {
  %4 = alloca ptr, align 8
  %5 = alloca ptr, align 8
  %6 = alloca i64, align 8
  %7 = alloca ptr, align 8
  %8 = alloca i32, align 4
  store ptr %0, ptr %4, align 8, !tbaa !3
  store ptr %1, ptr %5, align 8, !tbaa !8
  store i64 %2, ptr %6, align 8, !tbaa !9
  %9 = load ptr, ptr %4, align 8
  %10 = call noalias noundef nonnull ptr @_Znwm(i64 noundef 200) #13
  invoke void @_ZN11OpenImageIO6v3_1_05CSHA1C1Ev(ptr noundef nonnull align 8 dereferenceable(200) %10)
          to label %11 unwind label %16

11:                                               ; preds = %3
  %12 = getelementptr inbounds nuw %"class.OpenImageIO::v3_1_0::SHA1", ptr %9, i32 0, i32 0
  store ptr %10, ptr %12, align 8, !tbaa !11
  %13 = getelementptr inbounds nuw %"class.OpenImageIO::v3_1_0::SHA1", ptr %9, i32 0, i32 1
  store i8 0, ptr %13, align 8, !tbaa !15
  %14 = load ptr, ptr %5, align 8, !tbaa !8
  %15 = load i64, ptr %6, align 8, !tbaa !9
  call void @_ZN11OpenImageIO6v3_1_04SHA16appendEPKvm(ptr noundef nonnull align 8 dereferenceable(9) %9, ptr noundef %14, i64 noundef %15)
  ret void

16:                                               ; preds = %3
  %17 = landingpad { ptr, i32 }
          cleanup
  %18 = extractvalue { ptr, i32 } %17, 0
  store ptr %18, ptr %7, align 8
  %19 = extractvalue { ptr, i32 } %17, 1
  store i32 %19, ptr %8, align 4
  call void @_ZdlPvm(ptr noundef %10, i64 noundef 200) #14
  br label %20

20:                                               ; preds = %16
  %21 = load ptr, ptr %7, align 8
  %22 = load i32, ptr %8, align 4
  %23 = insertvalue { ptr, i32 } poison, ptr %21, 0
  %24 = insertvalue { ptr, i32 } %23, i32 %22, 1
  resume { ptr, i32 } %24
}