; Function Attrs: mustprogress uwtable
define void @_ZN11OpenImageIO6v3_1_04SHA1C2EPKvm(ptr noundef nonnull align 8 captures(none) dereferenceable(9) initializes((0, 9)) %0, ptr noundef %1, i64 noundef %2) unnamed_addr #4 align 2 personality ptr @__gxx_personality_v0 {
  %4 = tail call noalias noundef nonnull dereferenceable(200) ptr @_Znwm(i64 noundef 200) #19
  %5 = getelementptr inbounds nuw i8, ptr %4, i64 128
  %6 = getelementptr inbounds nuw i8, ptr %4, i64 192
  store ptr %5, ptr %6, align 8, !tbaa !3
  store i32 1732584193, ptr %4, align 8, !tbaa !8
  %7 = getelementptr inbounds nuw i8, ptr %4, i64 4
  store i32 -271733879, ptr %7, align 4, !tbaa !8
  %8 = getelementptr inbounds nuw i8, ptr %4, i64 8
  store i32 -1732584194, ptr %8, align 8, !tbaa !8
  %9 = getelementptr inbounds nuw i8, ptr %4, i64 12
  store i32 271733878, ptr %9, align 4, !tbaa !8
  %10 = getelementptr inbounds nuw i8, ptr %4, i64 16
  store i32 -1009589776, ptr %10, align 8, !tbaa !8
  %11 = getelementptr inbounds nuw i8, ptr %4, i64 20
  store i32 0, ptr %11, align 4, !tbaa !8
  %12 = getelementptr inbounds nuw i8, ptr %4, i64 24
  store i32 0, ptr %12, align 4, !tbaa !8
  store ptr %4, ptr %0, align 8, !tbaa !10
  %13 = getelementptr inbounds nuw i8, ptr %0, i64 8
  store i8 0, ptr %13, align 8, !tbaa !14
  tail call void @_ZN11OpenImageIO6v3_1_04SHA16appendEPKvm(ptr noundef nonnull align 8 dereferenceable(9) %0, ptr noundef %1, i64 noundef %2)
  ret void
}